; Function Attrs: mustprogress uwtable
define hidden void @_ZNK6Assimp7Blender9Structure7ConvertINS0_7LibraryEEEvRT_RKNS0_12FileDatabaseE(ptr noundef nonnull align 8 dereferenceable(120) %0, ptr noundef nonnull align 8 dereferenceable(1560) %1, ptr noundef nonnull align 8 dereferenceable(232) %2) local_unnamed_addr #0 align 2 personality ptr @__gxx_personality_v0 {
  %4 = getelementptr inbounds nuw i8, ptr %1, i64 16
  tail call void @_ZNK6Assimp7Blender9Structure9ReadFieldILi2ENS0_2IDEEEvRT0_PKcRKNS0_12FileDatabaseE(ptr noundef nonnull align 8 dereferenceable(120) %0, ptr noundef nonnull align 8 dereferenceable(1042) %4, ptr noundef nonnull @.str, ptr noundef nonnull align 8 dereferenceable(232) %2)
  %5 = getelementptr inbounds nuw i8, ptr %1, i64 1064
  tail call void @_ZNK6Assimp7Blender9Structure14ReadFieldArrayILi1EcLm240EEEvRAT1__T0_PKcRKNS0_12FileDatabaseE(ptr noundef nonnull align 8 dereferenceable(120) %0, ptr noundef nonnull align 1 dereferenceable(240) %5, ptr noundef nonnull @.str.224, ptr noundef nonnull align 8 dereferenceable(232) %2)
  %6 = getelementptr inbounds nuw i8, ptr %1, i64 1304
  tail call void @_ZNK6Assimp7Blender9Structure14ReadFieldArrayILi2EcLm240EEEvRAT1__T0_PKcRKNS0_12FileDatabaseE(ptr noundef nonnull align 8 dereferenceable(120) %0, ptr noundef nonnull align 1 dereferenceable(240) %6, ptr noundef nonnull @.str.231, ptr noundef nonnull align 8 dereferenceable(232) %2)
  %7 = getelementptr inbounds nuw i8, ptr %1, i64 1544
  %8 = tail call noundef zeroext i1 @_ZNK6Assimp7Blender9Structure12ReadFieldPtrILi1ESt10shared_ptrNS0_7LibraryEEEbRT0_IT1_EPKcRKNS0_12FileDatabaseEb(ptr noundef nonnull align 8 dereferenceable(120) %0, ptr noundef nonnull align 8 dereferenceable(16) %7, ptr noundef nonnull @.str.5, ptr noundef nonnull align 8 dereferenceable(232) %2, i1 noundef zeroext false)
  %9 = getelementptr inbounds nuw i8, ptr %2, i64 128
  %10 = load ptr, ptr %9, align 8
  %11 = getelementptr inbounds nuw i8, ptr %0, i64 104
  %12 = load i64, ptr %11, align 8
  %13 = getelementptr inbounds nuw i8, ptr %10, i64 24
  %14 = load ptr, ptr %13, align 8
  %15 = getelementptr inbounds i8, ptr %14, i64 %12
  store ptr %15, ptr %13, align 8
  %16 = getelementptr inbounds nuw i8, ptr %10, i64 40
  %17 = load ptr, ptr %16, align 8
  %18 = icmp ugt ptr %15, %17
  br i1 %18, label %19, label %_ZN6Assimp12StreamReaderILb1ELb1EE6IncPtrEl.exit

19:                                               ; preds = %3
  %20 = tail call ptr @__cxa_allocate_exception(i64 16) #23
  invoke void @_ZN17DeadlyImportErrorC2EPKc(ptr noundef nonnull align 8 dereferenceable(16) %20, ptr noundef nonnull @.str.307)
          to label %21 unwind label %22

21:                                               ; preds = %19
  tail call void @__cxa_throw(ptr nonnull %20, ptr nonnull @_ZTI17DeadlyImportError, ptr nonnull @_ZNSt13runtime_errorD2Ev) #24
  unreachable

22:                                               ; preds = %19
  %23 = landingpad { ptr, i32 }
          cleanup
  tail call void @__cxa_free_exception(ptr nonnull %20) #23
  resume { ptr, i32 } %23

_ZN6Assimp12StreamReaderILb1ELb1EE6IncPtrEl.exit: ; preds = %3
  ret void
}